target datalayout = "e-m:e-p270:32:32-p271:32:32-p272:64:64-i64:64-i128:128-f80:128-n8:16:32:64-S128"
target triple = "x86_64-pc-linux-gnu"

@prefixes = internal global ptr null, align 8

; Function Attrs: null_pointer_is_valid sspstrong uwtable
define void @proto_register_prefix(ptr noundef %0, ptr noundef %1) #0 {
  %3 = alloca ptr, align 8
  %4 = alloca ptr, align 8
  store ptr %0, ptr %3, align 8
  store ptr %1, ptr %4, align 8
  %5 = load ptr, ptr @prefixes, align 8
  %6 = icmp ne ptr %5, null
  br i1 %6, label %9, label %7

7:                                                ; preds = %2
  %8 = call ptr @g_hash_table_new(ptr noundef @prefix_hash, ptr noundef @prefix_equal)
  store ptr %8, ptr @prefixes, align 8
  br label %9

9:                                                ; preds = %7, %2
  %10 = load ptr, ptr @prefixes, align 8
  %11 = load ptr, ptr %3, align 8
  %12 = load ptr, ptr %4, align 8
  %13 = call i32 @g_hash_table_insert(ptr noundef %10, ptr noundef %11, ptr noundef %12)
  ret void
}