; Function Attrs: null_pointer_is_valid sspstrong uwtable
define void @proto_register_prefix(ptr noundef %0, ptr noundef %1) local_unnamed_addr #0 {
  %3 = load ptr, ptr @prefixes, align 8
  %.not = icmp eq ptr %3, null
  br i1 %.not, label %4, label %6

4:                                                ; preds = %2
  %5 = tail call ptr @g_hash_table_new(ptr noundef nonnull @prefix_hash, ptr noundef nonnull @prefix_equal)
  store ptr %5, ptr @prefixes, align 8
  br label %6

6:                                                ; preds = %4, %2
  %7 = phi ptr [ %5, %4 ], [ %3, %2 ]
  %8 = tail call i32 @g_hash_table_insert(ptr noundef %7, ptr noundef %0, ptr noundef %1)
  ret void
}